target datalayout = "e-m:e-p270:32:32-p271:32:32-p272:64:64-i64:64-i128:128-f80:128-n8:16:32:64-S128"
target triple = "x86_64-unknown-linux-gnu"

%"class.std::basic_string_view" = type { i64, ptr }

@.str.5 = private unnamed_addr constant [24 x i8] c"grpc.internal.transport\00", align 1

; Function Attrs: noreturn nounwind uwtable
define linkonce_odr hidden void @__clang_call_terminate(ptr noundef %0) #7 comdat {
  %2 = call ptr @__cxa_begin_catch(ptr %0) #3
  call void @_ZSt9terminatev() #16
  unreachable
}

; Function Attrs: mustprogress nounwind uwtable
define linkonce_odr noundef i64 @_ZNSt11char_traitsIcE6lengthEPKc(ptr noundef %__s) #4 comdat align 2 {
entry:
  %__s.addr = alloca ptr, align 8
  store ptr %__s, ptr %__s.addr, align 8
  %0 = load ptr, ptr %__s.addr, align 8
  %call = call i64 @strlen(ptr noundef %0) #3
  ret i64 %call
}

; Function Attrs: mustprogress nounwind uwtable
define linkonce_odr void @_ZNSt17basic_string_viewIcSt11char_traitsIcEEC2EPKc(ptr noundef nonnull align 8 dereferenceable(16) %this, ptr noundef nonnull %__str) unnamed_addr #4 comdat align 2 personality ptr @__gxx_personality_v0 {
entry:
  %this.addr = alloca ptr, align 8
  %__str.addr = alloca ptr, align 8
  store ptr %this, ptr %this.addr, align 8
  store ptr %__str, ptr %__str.addr, align 8
  %this1 = load ptr, ptr %this.addr, align 8
  %_M_len = getelementptr inbounds %"class.std::basic_string_view", ptr %this1, i32 0, i32 0
  %0 = load ptr, ptr %__str.addr, align 8
  %call = invoke noundef i64 @_ZNSt11char_traitsIcE6lengthEPKc(ptr noundef %0)
          to label %invoke.cont unwind label %terminate.lpad

invoke.cont:                                      ; preds = %entry
  store i64 %call, ptr %_M_len, align 8
  %_M_str = getelementptr inbounds %"class.std::basic_string_view", ptr %this1, i32 0, i32 1
  %1 = load ptr, ptr %__str.addr, align 8
  store ptr %1, ptr %_M_str, align 8
  ret void

terminate.lpad:                                   ; preds = %entry
  %2 = landingpad { ptr, i32 }
          catch ptr null
  %3 = extractvalue { ptr, i32 } %2, 0
  call void @__clang_call_terminate(ptr %3) #16
  unreachable
}

; Function Attrs: mustprogress nounwind uwtable
define linkonce_odr { i64, ptr } @_ZN9grpc_core9Transport14ChannelArgNameEv() #4 comdat align 2 {
entry:
  %retval = alloca %"class.std::basic_string_view", align 8
  call void @_ZNSt17basic_string_viewIcSt11char_traitsIcEEC2EPKc(ptr noundef nonnull align 8 dereferenceable(16) %retval, ptr noundef @.str.5) #3
  %0 = load { i64, ptr }, ptr %retval, align 8
  ret { i64, ptr } %0
}

; Function Attrs: mustprogress nounwind uwtable
define linkonce_odr noundef ptr @_ZN9grpc_core13GetObjectImplINS_9TransportEvE3GetEPS1_(ptr noundef %p) #4 comdat align 2 {
entry:
  %p.addr = alloca ptr, align 8
  store ptr %p, ptr %p.addr, align 8
  %0 = load ptr, ptr %p.addr, align 8
  ret ptr %0
}

; Function Attrs: mustprogress uwtable
define linkonce_odr noundef ptr @_ZNK9grpc_core11ChannelArgs10GetPointerINS_9TransportEEENS_13GetObjectImplIT_vE10StoredTypeESt17basic_string_viewIcSt11char_traitsIcEE(ptr noundef nonnull align 8 dereferenceable(8) %this, i64 %name.coerce0, ptr %name.coerce1) #5 comdat align 2 {
entry:
  %name = alloca %"class.std::basic_string_view", align 8
  %this.addr = alloca ptr, align 8
  %agg.tmp = alloca %"class.std::basic_string_view", align 8
  %0 = getelementptr inbounds { i64, ptr }, ptr %name, i32 0, i32 0
  store i64 %name.coerce0, ptr %0, align 8
  %1 = getelementptr inbounds { i64, ptr }, ptr %name, i32 0, i32 1
  store ptr %name.coerce1, ptr %1, align 8
  store ptr %this, ptr %this.addr, align 8
  %this1 = load ptr, ptr %this.addr, align 8
  call void @llvm.memcpy.p0.p0.i64(ptr align 8 %agg.tmp, ptr align 8 %name, i64 16, i1 false)
  %2 = getelementptr inbounds { i64, ptr }, ptr %agg.tmp, i32 0, i32 0
  %3 = load i64, ptr %2, align 8
  %4 = getelementptr inbounds { i64, ptr }, ptr %agg.tmp, i32 0, i32 1
  %5 = load ptr, ptr %4, align 8
  %call = call noundef ptr @_ZNK9grpc_core11ChannelArgs14GetVoidPointerESt17basic_string_viewIcSt11char_traitsIcEE(ptr noundef nonnull align 8 dereferenceable(8) %this1, i64 %3, ptr %5)
  ret ptr %call
}

; Function Attrs: mustprogress uwtable
define linkonce_odr { i64, ptr } @_ZN9grpc_core20ChannelArgNameTraitsINS_9TransportEE14ChannelArgNameEv() #5 comdat align 2 {
entry:
  %retval = alloca %"class.std::basic_string_view", align 8
  %call = call { i64, ptr } @_ZN9grpc_core9Transport14ChannelArgNameEv()
  %0 = getelementptr inbounds { i64, ptr }, ptr %retval, i32 0, i32 0
  %1 = extractvalue { i64, ptr } %call, 0
  store i64 %1, ptr %0, align 8
  %2 = getelementptr inbounds { i64, ptr }, ptr %retval, i32 0, i32 1
  %3 = extractvalue { i64, ptr } %call, 1
  store ptr %3, ptr %2, align 8
  %4 = load { i64, ptr }, ptr %retval, align 8
  ret { i64, ptr } %4
}

; Function Attrs: mustprogress uwtable
define linkonce_odr noundef ptr @_ZNK9grpc_core11ChannelArgs9GetObjectINS_9TransportEEENS_13GetObjectImplIT_vE6ResultEv(ptr noundef nonnull align 8 dereferenceable(8) %this) #5 comdat align 2 {
entry:
  %this.addr = alloca ptr, align 8
  %agg.tmp = alloca %"class.std::basic_string_view", align 8
  store ptr %this, ptr %this.addr, align 8
  %this1 = load ptr, ptr %this.addr, align 8
  %call = call { i64, ptr } @_ZN9grpc_core20ChannelArgNameTraitsINS_9TransportEE14ChannelArgNameEv()
  %0 = getelementptr inbounds { i64, ptr }, ptr %agg.tmp, i32 0, i32 0
  %1 = extractvalue { i64, ptr } %call, 0
  store i64 %1, ptr %0, align 8
  %2 = getelementptr inbounds { i64, ptr }, ptr %agg.tmp, i32 0, i32 1
  %3 = extractvalue { i64, ptr } %call, 1
  store ptr %3, ptr %2, align 8
  %4 = getelementptr inbounds { i64, ptr }, ptr %agg.tmp, i32 0, i32 0
  %5 = load i64, ptr %4, align 8
  %6 = getelementptr inbounds { i64, ptr }, ptr %agg.tmp, i32 0, i32 1
  %7 = load ptr, ptr %6, align 8
  %call2 = call noundef ptr @_ZNK9grpc_core11ChannelArgs10GetPointerINS_9TransportEEENS_13GetObjectImplIT_vE10StoredTypeESt17basic_string_viewIcSt11char_traitsIcEE(ptr noundef nonnull align 8 dereferenceable(8) %this1, i64 %5, ptr %7)
  %call3 = call noundef ptr @_ZN9grpc_core13GetObjectImplINS_9TransportEvE3GetEPS1_(ptr noundef %call2)
  ret ptr %call3
}

; Function Attrs: mustprogress uwtable
define internal noundef zeroext i1 @_ZN9grpc_core12_GLOBAL__N_134TransportSupportsPromiseBasedCallsERKNS_11ChannelArgsE(ptr noundef nonnull align 8 dereferenceable(8) %args) #5 {
entry:
  %args.addr = alloca ptr, align 8
  %transport = alloca ptr, align 8
  store ptr %args, ptr %args.addr, align 8
  %0 = load ptr, ptr %args.addr, align 8
  %call = call noundef ptr @_ZNK9grpc_core11ChannelArgs9GetObjectINS_9TransportEEENS_13GetObjectImplIT_vE6ResultEv(ptr noundef nonnull align 8 dereferenceable(8) %0)
  store ptr %call, ptr %transport, align 8
  %1 = load ptr, ptr %transport, align 8
  %vtable = load ptr, ptr %1, align 8
  %vfn = getelementptr inbounds ptr, ptr %vtable, i64 4
  %2 = load ptr, ptr %vfn, align 8
  %call1 = call noundef ptr %2(ptr noundef nonnull align 8 dereferenceable(8) %1)
  %cmp = icmp ne ptr %call1, null
  ret i1 %cmp
}