; Function Attrs: mustprogress uwtable
define internal noundef zeroext i1 @_ZN9grpc_core12_GLOBAL__N_134TransportSupportsPromiseBasedCallsERKNS_11ChannelArgsE(ptr noundef nonnull align 8 dereferenceable(8) %args) #3 personality ptr @__gxx_personality_v0 {
entry:
  %call.i.i = tail call noundef ptr @_ZNK9grpc_core11ChannelArgs14GetVoidPointerESt17basic_string_viewIcSt11char_traitsIcEE(ptr noundef nonnull align 8 dereferenceable(8) %args, i64 23, ptr nonnull @.str.5)
  %vtable = load ptr, ptr %call.i.i, align 8
  %vfn = getelementptr inbounds i8, ptr %vtable, i64 32
  %0 = load ptr, ptr %vfn, align 8
  %call1 = tail call noundef ptr %0(ptr noundef nonnull align 8 dereferenceable(8) %call.i.i)
  %cmp = icmp ne ptr %call1, null
  ret i1 %cmp
}